target datalayout = "e-m:e-p270:32:32-p271:32:32-p272:64:64-i64:64-i128:128-f80:128-n8:16:32:64-S128"
target triple = "x86_64-pc-linux-gnu"

%struct.Abc_Frame_t_ = type { ptr, ptr, ptr, ptr, ptr, ptr, ptr, ptr, ptr, ptr, i32, i32, i32, i32, i32, ptr, float, float, i32, i32, ptr, ptr, ptr, double, double, ptr, ptr, ptr, ptr, ptr, ptr, ptr, ptr, ptr, ptr, ptr, ptr, float, ptr, i32, ptr, ptr, ptr, ptr, ptr, i32, i32, i32, i32, i32, i32, ptr, ptr, ptr, ptr, ptr, ptr, i32, i32, ptr, ptr, ptr, ptr, ptr, ptr, ptr, ptr, ptr, ptr, ptr, ptr, ptr, ptr, ptr, ptr, ptr, ptr, ptr, ptr, ptr, ptr, ptr, ptr, ptr, ptr, ptr, ptr, ptr, ptr }
%struct.Abc_Ntk_t_ = type { i32, i32, ptr, ptr, ptr, ptr, ptr, ptr, ptr, ptr, ptr, ptr, ptr, [11 x i32], i32, i32, i32, i32, ptr, i32, ptr, ptr, i32, i32, i32, double, i32, %struct.Vec_Int_t_, ptr, ptr, ptr, ptr, ptr, float, i32, ptr, ptr, ptr, ptr, ptr, ptr, ptr, ptr, ptr, ptr, ptr, ptr, ptr, ptr, ptr, ptr, ptr, ptr, ptr, ptr, ptr, ptr }
%struct.Vec_Int_t_ = type { i32, i32, ptr }

@.str.39 = private unnamed_addr constant [4 x i8] c"yes\00", align 1
@.str.40 = private unnamed_addr constant [3 x i8] c"no\00", align 1
@.str.54 = private unnamed_addr constant [40 x i8] c"There is no Liberty library available.\0A\00", align 1
@.str.74 = private unnamed_addr constant [64 x i8] c"\09-v       : toggle printing verbose information [default = %s]\0A\00", align 1
@.str.86 = private unnamed_addr constant [37 x i8] c"\09-h       : print the command usage\0A\00", align 1
@.str.88 = private unnamed_addr constant [30 x i8] c"There is no current network.\0A\00", align 1
@.str.89 = private unnamed_addr constant [36 x i8] c"The current network is not mapped.\0A\00", align 1
@.str.94 = private unnamed_addr constant [58 x i8] c"The current network is not in a topo order (run \22topo\22).\0A\00", align 1
@.str.102 = private unnamed_addr constant [3 x i8] c"vh\00", align 1
@.str.129 = private unnamed_addr constant [22 x i8] c"usage: minsize [-vh]\0A\00", align 1
@.str.130 = private unnamed_addr constant [55 x i8] c"\09           downsizes all gates to their minimum size\0A\00", align 1

; Function Attrs: inlinehint nounwind uwtable
define internal i32 @Abc_NtkHasMapping(ptr noundef %0) #1 {
  %2 = alloca ptr, align 8
  store ptr %0, ptr %2, align 8, !tbaa !69
  %3 = load ptr, ptr %2, align 8, !tbaa !69
  %4 = getelementptr inbounds nuw %struct.Abc_Ntk_t_, ptr %3, i32 0, i32 1
  %5 = load i32, ptr %4, align 4, !tbaa !188
  %6 = icmp eq i32 %5, 4
  %7 = zext i1 %6 to i32
  ret i32 %7
}

; Function Attrs: nounwind uwtable
define internal i32 @Scl_CommandMinsize(ptr noundef %0, i32 noundef %1, ptr noundef %2) #0 {
  %4 = alloca i32, align 4
  %5 = alloca ptr, align 8
  %6 = alloca i32, align 4
  %7 = alloca ptr, align 8
  %8 = alloca ptr, align 8
  %9 = alloca i32, align 4
  %10 = alloca i32, align 4
  %11 = alloca i32, align 4
  store ptr %0, ptr %5, align 8, !tbaa !3
  store i32 %1, ptr %6, align 4, !tbaa !29
  store ptr %2, ptr %7, align 8, !tbaa !50
  call void @llvm.lifetime.start.p0(i64 8, ptr %8) #12
  %12 = load ptr, ptr %5, align 8, !tbaa !3
  %13 = call ptr @Abc_FrameReadNtk(ptr noundef %12)
  store ptr %13, ptr %8, align 8, !tbaa !69
  call void @llvm.lifetime.start.p0(i64 4, ptr %9) #12
  call void @llvm.lifetime.start.p0(i64 4, ptr %10) #12
  store i32 0, ptr %10, align 4, !tbaa !29
  call void (...) @Extra_UtilGetoptReset()
  br label %14

14:                                               ; preds = %26, %3
  %15 = load i32, ptr %6, align 4, !tbaa !29
  %16 = load ptr, ptr %7, align 8, !tbaa !50
  %17 = call i32 @Extra_UtilGetopt(i32 noundef %15, ptr noundef %16, ptr noundef @.str.102)
  store i32 %17, ptr %9, align 4, !tbaa !29
  %18 = icmp ne i32 %17, -1
  br i1 %18, label %19, label %27

19:                                               ; preds = %14
  %20 = load i32, ptr %9, align 4, !tbaa !29
  switch i32 %20, label %25 [
    i32 118, label %21
    i32 104, label %24
  ]

21:                                               ; preds = %19
  %22 = load i32, ptr %10, align 4, !tbaa !29
  %23 = xor i32 %22, 1
  store i32 %23, ptr %10, align 4, !tbaa !29
  br label %26

24:                                               ; preds = %19
  br label %72

25:                                               ; preds = %19
  br label %72

26:                                               ; preds = %21
  br label %14, !llvm.loop !94

27:                                               ; preds = %14
  %28 = load ptr, ptr %5, align 8, !tbaa !3
  %29 = call ptr @Abc_FrameReadNtk(ptr noundef %28)
  %30 = icmp eq ptr %29, null
  br i1 %30, label %31, label %36

31:                                               ; preds = %27
  %32 = load ptr, ptr %5, align 8, !tbaa !3
  %33 = getelementptr inbounds nuw %struct.Abc_Frame_t_, ptr %32, i32 0, i32 21
  %34 = load ptr, ptr %33, align 8, !tbaa !59
  %35 = call i32 (ptr, ptr, ...) @fprintf(ptr noundef %34, ptr noundef @.str.88) #12
  store i32 1, ptr %4, align 4
  store i32 1, ptr %11, align 4
  br label %92

36:                                               ; preds = %27
  %37 = load ptr, ptr %5, align 8, !tbaa !3
  %38 = call ptr @Abc_FrameReadNtk(ptr noundef %37)
  %39 = call i32 @Abc_NtkHasMapping(ptr noundef %38)
  %40 = icmp ne i32 %39, 0
  br i1 %40, label %46, label %41

41:                                               ; preds = %36
  %42 = load ptr, ptr %5, align 8, !tbaa !3
  %43 = getelementptr inbounds nuw %struct.Abc_Frame_t_, ptr %42, i32 0, i32 21
  %44 = load ptr, ptr %43, align 8, !tbaa !59
  %45 = call i32 (ptr, ptr, ...) @fprintf(ptr noundef %44, ptr noundef @.str.89) #12
  store i32 1, ptr %4, align 4
  store i32 1, ptr %11, align 4
  br label %92

46:                                               ; preds = %36
  %47 = load ptr, ptr %5, align 8, !tbaa !3
  %48 = call ptr @Abc_FrameReadNtk(ptr noundef %47)
  %49 = call i32 @Abc_SclCheckNtk(ptr noundef %48, i32 noundef 0)
  %50 = icmp ne i32 %49, 0
  br i1 %50, label %56, label %51

51:                                               ; preds = %46
  %52 = load ptr, ptr %5, align 8, !tbaa !3
  %53 = getelementptr inbounds nuw %struct.Abc_Frame_t_, ptr %52, i32 0, i32 21
  %54 = load ptr, ptr %53, align 8, !tbaa !59
  %55 = call i32 (ptr, ptr, ...) @fprintf(ptr noundef %54, ptr noundef @.str.94) #12
  store i32 1, ptr %4, align 4
  store i32 1, ptr %11, align 4
  br label %92

56:                                               ; preds = %46
  %57 = load ptr, ptr %5, align 8, !tbaa !3
  %58 = getelementptr inbounds nuw %struct.Abc_Frame_t_, ptr %57, i32 0, i32 34
  %59 = load ptr, ptr %58, align 8, !tbaa !58
  %60 = icmp eq ptr %59, null
  br i1 %60, label %61, label %66

61:                                               ; preds = %56
  %62 = load ptr, ptr %5, align 8, !tbaa !3
  %63 = getelementptr inbounds nuw %struct.Abc_Frame_t_, ptr %62, i32 0, i32 21
  %64 = load ptr, ptr %63, align 8, !tbaa !59
  %65 = call i32 (ptr, ptr, ...) @fprintf(ptr noundef %64, ptr noundef @.str.54) #12
  store i32 1, ptr %4, align 4
  store i32 1, ptr %11, align 4
  br label %92

66:                                               ; preds = %56
  %67 = load ptr, ptr %5, align 8, !tbaa !3
  %68 = getelementptr inbounds nuw %struct.Abc_Frame_t_, ptr %67, i32 0, i32 34
  %69 = load ptr, ptr %68, align 8, !tbaa !58
  %70 = load ptr, ptr %8, align 8, !tbaa !69
  %71 = load i32, ptr %10, align 4, !tbaa !29
  call void @Abc_SclMinsizePerform(ptr noundef %69, ptr noundef %70, i32 noundef 0, i32 noundef %71)
  store i32 0, ptr %4, align 4
  store i32 1, ptr %11, align 4
  br label %92

72:                                               ; preds = %25, %24
  %73 = load ptr, ptr %5, align 8, !tbaa !3
  %74 = getelementptr inbounds nuw %struct.Abc_Frame_t_, ptr %73, i32 0, i32 21
  %75 = load ptr, ptr %74, align 8, !tbaa !59
  %76 = call i32 (ptr, ptr, ...) @fprintf(ptr noundef %75, ptr noundef @.str.129) #12
  %77 = load ptr, ptr %5, align 8, !tbaa !3
  %78 = getelementptr inbounds nuw %struct.Abc_Frame_t_, ptr %77, i32 0, i32 21
  %79 = load ptr, ptr %78, align 8, !tbaa !59
  %80 = call i32 (ptr, ptr, ...) @fprintf(ptr noundef %79, ptr noundef @.str.130) #12
  %81 = load ptr, ptr %5, align 8, !tbaa !3
  %82 = getelementptr inbounds nuw %struct.Abc_Frame_t_, ptr %81, i32 0, i32 21
  %83 = load ptr, ptr %82, align 8, !tbaa !59
  %84 = load i32, ptr %10, align 4, !tbaa !29
  %85 = icmp ne i32 %84, 0
  %86 = select i1 %85, ptr @.str.39, ptr @.str.40
  %87 = call i32 (ptr, ptr, ...) @fprintf(ptr noundef %83, ptr noundef @.str.74, ptr noundef %86) #12
  %88 = load ptr, ptr %5, align 8, !tbaa !3
  %89 = getelementptr inbounds nuw %struct.Abc_Frame_t_, ptr %88, i32 0, i32 21
  %90 = load ptr, ptr %89, align 8, !tbaa !59
  %91 = call i32 (ptr, ptr, ...) @fprintf(ptr noundef %90, ptr noundef @.str.86) #12
  store i32 1, ptr %4, align 4
  store i32 1, ptr %11, align 4
  br label %92

92:                                               ; preds = %72, %66, %61, %51, %41, %31
  call void @llvm.lifetime.end.p0(i64 4, ptr %10) #12
  call void @llvm.lifetime.end.p0(i64 4, ptr %9) #12
  call void @llvm.lifetime.end.p0(i64 8, ptr %8) #12
  %93 = load i32, ptr %4, align 4
  ret i32 %93
}